target datalayout = "e-m:e-p270:32:32-p271:32:32-p272:64:64-i64:64-i128:128-f80:128-n8:16:32:64-S128"
target triple = "x86_64-pc-linux-gnu"

%struct.lv_color_t = type { i8, i8, i8 }

@opa_saved = internal global i8 0, align 1

; Function Attrs: nounwind uwtable
define internal void @add_to_cell(ptr noundef %0, i32 noundef %1, i32 noundef %2) #0 {
  %4 = alloca ptr, align 8
  %5 = alloca i32, align 4
  %6 = alloca i32, align 4
  store ptr %0, ptr %4, align 8, !tbaa !8
  store i32 %1, ptr %5, align 4, !tbaa !3
  store i32 %2, ptr %6, align 4, !tbaa !3
  %7 = load ptr, ptr %4, align 8, !tbaa !8
  %8 = load i32, ptr %5, align 4, !tbaa !3
  %9 = load i32, ptr %6, align 4, !tbaa !3
  call void @lv_obj_set_grid_cell(ptr noundef %7, i32 noundef 1, i32 noundef %8, i32 noundef 1, i32 noundef 1, i32 noundef %9, i32 noundef 1)
  ret void
}

; Function Attrs: nounwind uwtable
define internal ptr @fill_obj_create(ptr noundef %0, i32 noundef %1, i32 noundef %2) #0 {
  %4 = alloca ptr, align 8
  %5 = alloca i32, align 4
  %6 = alloca i32, align 4
  %7 = alloca [8 x %struct.lv_color_t], align 16
  %8 = alloca ptr, align 8
  %9 = alloca i24, align 4
  store ptr %0, ptr %4, align 8, !tbaa !8
  store i32 %1, ptr %5, align 4, !tbaa !3
  store i32 %2, ptr %6, align 4, !tbaa !3
  call void @llvm.lifetime.start.p0(i64 24, ptr %7) #5
  %10 = call i24 @lv_color_hex3(i32 noundef 0)
  store i24 %10, ptr %7, align 1
  %11 = getelementptr inbounds %struct.lv_color_t, ptr %7, i64 1
  %12 = call i24 @lv_color_hex3(i32 noundef 4095)
  store i24 %12, ptr %11, align 1
  %13 = getelementptr inbounds %struct.lv_color_t, ptr %7, i64 2
  %14 = call i24 @lv_color_hex3(i32 noundef 3840)
  store i24 %14, ptr %13, align 1
  %15 = getelementptr inbounds %struct.lv_color_t, ptr %7, i64 3
  %16 = call i24 @lv_color_hex3(i32 noundef 240)
  store i24 %16, ptr %15, align 1
  %17 = getelementptr inbounds %struct.lv_color_t, ptr %7, i64 4
  %18 = call i24 @lv_color_hex3(i32 noundef 15)
  store i24 %18, ptr %17, align 1
  %19 = getelementptr inbounds %struct.lv_color_t, ptr %7, i64 5
  %20 = call i24 @lv_color_hex3(i32 noundef 4080)
  store i24 %20, ptr %19, align 1
  %21 = getelementptr inbounds %struct.lv_color_t, ptr %7, i64 6
  %22 = call i24 @lv_color_hex3(i32 noundef 255)
  store i24 %22, ptr %21, align 1
  %23 = getelementptr inbounds %struct.lv_color_t, ptr %7, i64 7
  %24 = call i24 @lv_color_hex3(i32 noundef 3855)
  store i24 %24, ptr %23, align 1
  call void @llvm.lifetime.start.p0(i64 8, ptr %8) #5
  %25 = load ptr, ptr %4, align 8, !tbaa !8
  %26 = call ptr @lv_obj_create(ptr noundef %25)
  store ptr %26, ptr %8, align 8, !tbaa !8
  %27 = load ptr, ptr %8, align 8, !tbaa !8
  call void @lv_obj_remove_style_all(ptr noundef %27)
  %28 = load ptr, ptr %8, align 8, !tbaa !8
  %29 = load i8, ptr @opa_saved, align 1, !tbaa !7
  call void @lv_obj_set_style_opa(ptr noundef %28, i8 noundef zeroext %29, i32 noundef 0)
  %30 = load ptr, ptr %8, align 8, !tbaa !8
  call void @lv_obj_set_style_bg_opa(ptr noundef %30, i8 noundef zeroext -1, i32 noundef 0)
  %31 = load ptr, ptr %8, align 8, !tbaa !8
  %32 = load i32, ptr %5, align 4, !tbaa !3
  %33 = sext i32 %32 to i64
  %34 = getelementptr inbounds [8 x %struct.lv_color_t], ptr %7, i64 0, i64 %33
  call void @llvm.memcpy.p0.p0.i64(ptr align 4 %9, ptr align 1 %34, i64 3, i1 false)
  %35 = load i24, ptr %9, align 4
  call void @lv_obj_set_style_bg_color(ptr noundef %31, i24 %35, i32 noundef 0)
  %36 = load ptr, ptr %8, align 8, !tbaa !8
  call void @lv_obj_set_size(ptr noundef %36, i32 noundef 55, i32 noundef 30)
  %37 = load ptr, ptr %8, align 8, !tbaa !8
  %38 = load i32, ptr %5, align 4, !tbaa !3
  %39 = load i32, ptr %6, align 4, !tbaa !3
  call void @add_to_cell(ptr noundef %37, i32 noundef %38, i32 noundef %39)
  %40 = load ptr, ptr %8, align 8, !tbaa !8
  call void @llvm.lifetime.end.p0(i64 8, ptr %8) #5
  call void @llvm.lifetime.end.p0(i64 24, ptr %7) #5
  ret ptr %40
}