; Function Attrs: nounwind uwtable
define internal fastcc noundef ptr @fill_obj_create(ptr noundef %0, i32 noundef range(i32 0, 8) %1, i32 noundef range(i32 0, 7) %2) unnamed_addr #0 {
  %4 = alloca [8 x %struct.lv_color_t], align 16
  call void @llvm.lifetime.start.p0(i64 24, ptr nonnull %4) #6
  %5 = tail call i24 @lv_color_hex3(i32 noundef 0) #6
  store i24 %5, ptr %4, align 16
  %6 = getelementptr inbounds nuw i8, ptr %4, i64 3
  %7 = tail call i24 @lv_color_hex3(i32 noundef 4095) #6
  store i24 %7, ptr %6, align 1
  %8 = getelementptr inbounds nuw i8, ptr %4, i64 6
  %9 = tail call i24 @lv_color_hex3(i32 noundef 3840) #6
  store i24 %9, ptr %8, align 2
  %10 = getelementptr inbounds nuw i8, ptr %4, i64 9
  %11 = tail call i24 @lv_color_hex3(i32 noundef 240) #6
  store i24 %11, ptr %10, align 1
  %12 = getelementptr inbounds nuw i8, ptr %4, i64 12
  %13 = tail call i24 @lv_color_hex3(i32 noundef 15) #6
  store i24 %13, ptr %12, align 4
  %14 = getelementptr inbounds nuw i8, ptr %4, i64 15
  %15 = tail call i24 @lv_color_hex3(i32 noundef 4080) #6
  store i24 %15, ptr %14, align 1
  %16 = getelementptr inbounds nuw i8, ptr %4, i64 18
  %17 = tail call i24 @lv_color_hex3(i32 noundef 255) #6
  store i24 %17, ptr %16, align 2
  %18 = getelementptr inbounds nuw i8, ptr %4, i64 21
  %19 = tail call i24 @lv_color_hex3(i32 noundef 3855) #6
  store i24 %19, ptr %18, align 1
  %20 = tail call ptr @lv_obj_create(ptr noundef %0) #6
  tail call void @lv_obj_remove_style_all(ptr noundef %20) #6
  %21 = load i8, ptr @opa_saved, align 1, !tbaa !3
  tail call void @lv_obj_set_style_opa(ptr noundef %20, i8 noundef zeroext %21, i32 noundef 0) #6
  tail call void @lv_obj_set_style_bg_opa(ptr noundef %20, i8 noundef zeroext -1, i32 noundef 0) #6
  %22 = zext nneg i32 %1 to i64
  %23 = getelementptr inbounds nuw [8 x %struct.lv_color_t], ptr %4, i64 0, i64 %22
  %.0.copyload = load i24, ptr %23, align 1
  tail call void @lv_obj_set_style_bg_color(ptr noundef %20, i24 %.0.copyload, i32 noundef 0) #6
  tail call void @lv_obj_set_size(ptr noundef %20, i32 noundef 55, i32 noundef 30) #6
  tail call void @lv_obj_set_grid_cell(ptr noundef %20, i32 noundef 1, i32 noundef range(i32 0, 9) %1, i32 noundef 1, i32 noundef 1, i32 noundef range(i32 -8, 21) %2, i32 noundef 1) #6
  call void @llvm.lifetime.end.p0(i64 24, ptr nonnull %4) #6
  ret ptr %20
}